(dp0
S'slope'
p1
I516
sS'pointing'
p2
I3
sS'hats'
p3
I4
sS'people'
p4
I825
sS'yellow'
p5
I5
sS'woods'
p6
I6
sS'asian'
p7
I577
sS'skiing'
p8
I8
sS'messy'
p9
I65
sS'chair'
p10
I10
sS'displaying'
p11
I11
sS'children'
p12
I12
sS'row'
p13
I13
sS'feeding'
p14
I100
sS'tv'
p15
I15
sS'fenced'
p16
I16
sS'young'
p17
I18
sS'suits'
p18
I19
sS'bicycles'
p19
I20
sS'bike'
p20
I21
sS'device'
p21
I878
sS'dirty'
p22
I925
sS'smile'
p23
I22
sS'enjoying'
p24
I23
sS'skis'
p25
I24
sS'hill'
p26
I358
sS'brown'
p27
I26
sS'woman'
p28
I27
sS'garden'
p29
I28
sS'sitting'
p30
I29
sS'dessert'
p31
I30
sS'blanket'
p32
I31
sS'wave'
p33
I34
sS'spoon'
p34
I35
sS'closeup'
p35
I36
sS'kitten'
p36
I38
sS'drinking'
p37
I39
sS'fireplace'
p38
I40
sS'brightly'
p39
I932
sS'wooded'
p40
I300
sS'clouds'
p41
I42
sS'couches'
p42
I43
sS'wooden'
p43
I44
sS'laying'
p44
I45
sS'bright'
p45
I523
sS'cloudy'
p46
I47
sS'large'
p47
I48
sS'sand'
p48
I49
sS'skate'
p49
I50
sS'subway'
p50
I344
sS'team'
p51
I52
sS'small'
p52
I53
sS'sidewalk'
p53
I54
sS'round'
p54
I55
sS'clothes'
p55
I56
sS'work'
p56
I57
sS'bicycle'
p57
I58
sS'fence'
p58
I59
sS'phones'
p59
I60
sS'streets'
p60
I61
sS'bacon'
p61
I62
sS'sign'
p62
I63
sS'jump'
p63
I64
sS'dish'
p64
I9
sS'street'
p65
I66
sS'video'
p66
I67
sS'traveling'
p67
I68
sS'eating'
p68
I848
sS'drinks'
p69
I70
sS'blue'
p70
I71
sS'sausage'
p71
I494
sS'plays'
p72
I73
sS'stands'
p73
I74
sS'clock'
p74
I75
sS'giving'
p75
I76
sS'sun'
p76
I77
sS'cooking'
p77
I78
sS'uniform'
p78
I79
sS'cell'
p79
I80
sS'lights'
p80
I81
sS'waiting'
p81
I82
sS'poles'
p82
I83
sS'new'
p83
I84
sS'net'
p84
I85
sS'carpet'
p85
I86
sS'racing'
p86
I87
sS'bird'
p87
I88
sS'filled'
p88
I89
sS'body'
p89
I90
sS'pose'
p90
I853
sS'sinks'
p91
I91
sS'gathered'
p92
I92
sS'men'
p93
I93
sS'commercial'
p94
I94
sS'french'
p95
I95
sS'herd'
p96
I96
sS'water'
p97
I97
sS'fun'
p98
I689
sS'tracks'
p99
I99
sS'apartment'
p100
I781
sS'baseball'
p101
I101
sS'sink'
p102
I102
sS'trunk'
p103
I103
sS'directions'
p104
I104
sS'path'
p105
I105
sS'frosting'
p106
I106
sS'appears'
p107
I107
sS'box'
p108
I108
sS'boy'
p109
I109
sS'kids'
p110
I110
sS'colored'
p111
I111
sS'luggage'
p112
I112
sS'rests'
p113
I113
sS'items'
p114
I114
sS'leaves'
p115
I115
sS'bow'
p116
I116
sS'airport'
p117
I117
sS'smoke'
p118
I118
sS'pick'
p119
I119
sS'action'
p120
I120
sS'military'
p121
I121
sS'narrow'
p122
I122
sS'makes'
p123
I123
sS'pillow'
p124
I124
sS'sticking'
p125
I125
sS'beautiful'
p126
I126
sS'apple'
p127
I127
sS'family'
p128
I128
sS'buses'
p129
I129
sS'pitch'
p130
I691
sS'transit'
p131
I131
sS'wii'
p132
I132
sS'sliced'
p133
I133
sS'snowboard'
p134
I134
sS'appliances'
p135
I136
sS'toys'
p136
I137
sS'parking'
p137
I589
sS'market'
p138
I139
sS'red'
p139
I361
sS'standing'
p140
I140
sS'use'
p141
I141
sS'swings'
p142
I142
sS'takes'
p143
I143
sS'working'
p144
I144
sS'donuts'
p145
I145
sS'sweater'
p146
I146
sS'contains'
p147
I147
sS'arms'
p148
I148
sS'rackets'
p149
I149
sS'camera'
p150
I150
sS'overhead'
p151
I151
sS'vehicle'
p152
I152
sS'taken'
p153
I153
sS'type'
p154
I154
sS'horses'
p155
I156
sS'flat'
p156
I157
sS'door'
p157
I158
sS'fly'
p158
I941
sS'lush'
p159
I695
sS'getting'
p160
I865
sS'chocolate'
p161
I160
sS'phone'
p162
I161
sS'flag'
p163
I162
sS'train'
p164
I163
sS'adult'
p165
I165
sS'cluttered'
p166
I166
sS'baby'
p167
I167
sS'hole'
p168
I168
sS'mounted'
p169
I169
sS'riders'
p170
I170
sS'women'
p171
I171
sS'town'
p172
I172
sS'grill'
p173
I173
sS'animals'
p174
I174
sS'room'
p175
I175
sS'salad'
p176
I176
sS'player'
p177
I698
sS'car'
p178
I178
sS'ride'
p179
I706
sS'cap'
p180
I180
sS'<pad>'
p181
I0
sS'roof'
p182
I182
sS'cat'
p183
I183
sS'decker'
p184
I184
sS'donut'
p185
I185
sS'pulling'
p186
I187
sS'male'
p187
I188
sS'urinals'
p188
I189
sS'control'
p189
I190
sS'picture'
p190
I968
sS'grassy'
p191
I191
sS'pieces'
p192
I192
sS'high'
p193
I193
sS'foods'
p194
I181
sS'carrot'
p195
I194
sS'posing'
p196
I195
sS'veggies'
p197
I196
sS'cows'
p198
I198
sS'pond'
p199
I197
sS'tan'
p200
I200
sS'dress'
p201
I201
sS'airplane'
p202
I202
sS'pink'
p203
I203
sS'huge'
p204
I204
sS'end'
p205
I32
sS'winter'
p206
I206
sS'sit'
p207
I207
sS'clothing'
p208
I208
sS'holds'
p209
I209
sS'milk'
p210
I210
sS'sized'
p211
I882
sS'machine'
p212
I211
sS'hot'
p213
I287
sS'forest'
p214
I213
sS'animal'
p215
I214
sS'elephant'
p216
I215
sS'boats'
p217
I304
sS'gate'
p218
I217
sS'toddler'
p219
I218
sS'beach'
p220
I219
sS'pizza'
p221
I220
sS'plant'
p222
I336
sS'sandwich'
p223
I222
sS'helmet'
p224
I707
sS'farm'
p225
I225
sS'watch'
p226
I226
sS'waters'
p227
I227
sS'swing'
p228
I388
sS'different'
p229
I708
sS'tied'
p230
I389
sS'plane'
p231
I231
sS'trees'
p232
I555
sS'vases'
p233
I233
sS'ties'
p234
I234
sS'vase'
p235
I235
sS'guys'
p236
I236
sS'types'
p237
I237
sS'man'
p238
I238
sS'tomato'
p239
I239
sS'tile'
p240
I216
sS'branches'
p241
I241
sS'neck'
p242
I242
sS'crowded'
p243
I243
sS'light'
p244
I244
sS'counter'
p245
I245
sS'lines'
p246
I246
sS'eats'
p247
I247
sS'meat'
p248
I800
sS'shore'
p249
I248
sS'upside'
p250
I291
sS'shade'
p251
I251
sS'vintage'
p252
I711
sS'basket'
p253
I253
sS'tall'
p254
I254
sS'lined'
p255
I255
sS'pulled'
p256
I256
sS'playing'
p257
I257
sS'patio'
p258
I258
sS'wine'
p259
I259
sS'pans'
p260
I260
sS'cute'
p261
I261
sS'serving'
p262
I262
sS'shoes'
p263
I263
sS'office'
p264
I264
sS'deck'
p265
I536
sS'displayed'
p266
I267
sS'meter'
p267
I268
sS'course'
p268
I270
sS'paper'
p269
I271
sS'including'
p270
I272
sS'costume'
p271
I273
sS'oven'
p272
I274
sS'signs'
p273
I275
sS'smart'
p274
I779
sS'smiling'
p275
I276
sS'birds'
p276
I278
sS'bunch'
p277
I279
sS'style'
p278
I280
sS'group'
p279
I281
sS'monitor'
p280
I282
sS'suitcases'
p281
I552
sS'personal'
p282
I284
sS'sill'
p283
I563
sS'backpack'
p284
I286
sS'lamp'
p285
I212
sS'writing'
p286
I288
sS'platform'
p287
I289
sS'window'
p288
I290
sS'pillows'
p289
I971
sS'orange'
p290
I293
sS'covered'
p291
I294
sS'soccer'
p292
I295
sS'sauce'
p293
I296
sS'racquet'
p294
I883
sS'coffee'
p295
I297
sS'food'
p296
I298
sS'school'
p297
I543
sS'oranges'
p298
I301
sS'number'
p299
I400
sS'underneath'
p300
I303
sS'dock'
p301
I186
sS'walls'
p302
I305
sS'giraffe'
p303
I306
sS'half'
p304
I307
sS'foot'
p305
I308
sS'bath'
p306
I876
sS'cage'
p307
I309
sS'silver'
p308
I310
sS'bread'
p309
I311
sS'mushrooms'
p310
I877
sS'rocky'
p311
I314
sS'potatoes'
p312
I316
sS'rocks'
p313
I317
sS'harbor'
p314
I318
sS'stopped'
p315
I320
sS'pan'
p316
I719
sS'rock'
p317
I322
sS'crossing'
p318
I323
sS'beneath'
p319
I324
sS'tray'
p320
I325
sS'meal'
p321
I326
sS'trailer'
p322
I327
sS'glasses'
p323
I328
sS'wheel'
p324
I720
sS'square'
p325
I329
sS'doughnut'
p326
I795
sS'elephants'
p327
I331
sS'doing'
p328
I332
sS'house'
p329
I333
sS'fish'
p330
I334
sS'hard'
p331
I335
sS'buildings'
p332
I221
sS'bowls'
p333
I337
sS'books'
p334
I338
sS'zebra'
p335
I339
sS'girl'
p336
I341
sS'enclosure'
p337
I343
sS'sandy'
p338
I960
sS'microwave'
p339
I838
sS'living'
p340
I345
sS'shown'
p341
I346
sS'flower'
p342
I347
sS'container'
p343
I348
sS'opened'
p344
I349
sS'driving'
p345
I350
sS'space'
p346
I351
sS'open'
p347
I407
sS'surrounded'
p348
I353
sS'looking'
p349
I355
sS'laid'
p350
I356
sS'race'
p351
I357
sS'bunches'
p352
I25
sS'hanging'
p353
I359
sS'sliding'
p354
I360
sS'highway'
p355
I51
sS'shows'
p356
I362
sS'foreground'
p357
I363
sS'umbrella'
p358
I364
sS'dirt'
p359
I365
sS'cars'
p360
I366
sS'little'
p361
I411
sS'cart'
p362
I368
sS'houses'
p363
I369
sS'graze'
p364
I370
sS'base'
p365
I371
sS'rain'
p366
I725
sS'sheet'
p367
I413
sS'cattle'
p368
I374
sS'guy'
p369
I375
sS'wall'
p370
I772
sS'swimming'
p371
I872
sS'bushes'
p372
I376
sS'poses'
p373
I796
sS'holding'
p374
I961
sS'yard'
p375
I377
sS'shelves'
p376
I378
sS'computers'
p377
I379
sS'skateboard'
p378
I380
sS'rack'
p379
I382
sS'turn'
p380
I383
sS'american'
p381
I384
sS'jumping'
p382
I230
sS'place'
p383
I386
sS'pepperoni'
p384
I387
sS'soda'
p385
I228
sS'snowboarding'
p386
I390
sS'view'
p387
I579
sS'throws'
p388
I393
sS'cheese'
p389
I394
sS'flying'
p390
I889
sS'features'
p391
I396
sS'girls'
p392
I419
sS'coming'
p393
I223
sS'doughnuts'
p394
I399
sS'scene'
p395
I302
sS'fancy'
p396
I401
sS'feet'
p397
I402
sS'lettuce'
p398
I403
sS'floors'
p399
I319
sS'scissors'
p400
I340
sS'cups'
p401
I406
sS'electronic'
p402
I352
sS'umbrellas'
p403
I408
sS'sheep'
p404
I409
sS'city'
p405
I410
sS'horse'
p406
I367
sS'toy'
p407
I412
sS'heads'
p408
I373
sS'hydrant'
p409
I414
sS'jet'
p410
I415
sS'bears'
p411
I416
sS'leading'
p412
I417
sS'bite'
p413
I418
sS'pots'
p414
I397
sS'plastic'
p415
I420
sS'towel'
p416
I801
sS'leash'
p417
I421
sS'station'
p418
I422
sS'stuffed'
p419
I423
sS'tea'
p420
I424
sS'wrapped'
p421
I425
sS'white'
p422
I426
sS'legs'
p423
I427
sS'banana'
p424
I428
sS'store'
p425
I429
sS'surfboard'
p426
I735
sS'urban'
p427
I431
sS'eyes'
p428
I432
sS'gear'
p429
I433
sS'shorts'
p430
I434
sS'shelf'
p431
I435
sS'hotel'
p432
I436
sS'serve'
p433
I266
sS'surfing'
p434
I240
sS'fresh'
p435
I999
sS'flowers'
p436
I440
sS'stairs'
p437
I441
sS'photograph'
p438
I554
sS'center'
p439
I442
sS'steel'
p440
I443
sS'past'
p441
I179
sS'kind'
p442
I138
sS'sailing'
p443
I446
sS'double'
p444
I448
sS'tree'
p445
I449
sS'grey'
p446
I450
sS'bed'
p447
I451
sS'dogs'
p448
I452
sS'shower'
p449
I453
sS'stall'
p450
I454
sS'apples'
p451
I455
sS'coat'
p452
I456
sS'happy'
p453
I897
sS'enclosed'
p454
I457
sS'onions'
p455
I458
sS'uniforms'
p456
I459
sS'giraffes'
p457
I460
sS'carrots'
p458
I17
sS'turned'
p459
I462
sS'ceiling'
p460
I463
sS'glass'
p461
I990
sS'talking'
p462
I465
sS'outdoors'
p463
I466
sS'graffiti'
p464
I467
sS'pastry'
p465
I468
sS'seen'
p466
I469
sS'breakfast'
p467
I470
sS'lid'
p468
I471
sS'mountain'
p469
I472
sS'dishes'
p470
I474
sS'person'
p471
I741
sS'snow'
p472
I476
sS'couch'
p473
I477
sS'lit'
p474
I478
sS'equipment'
p475
I479
sS'sandwiches'
p476
I481
sS'doors'
p477
I482
sS'truck'
p478
I249
sS'rides'
p479
I484
sS'rider'
p480
I485
sS'surf'
p481
I486
sS'play'
p482
I487
sS'multiple'
p483
I488
sS'zebras'
p484
I489
sS'track'
p485
I490
sS'park'
p486
I491
sS'eggs'
p487
I492
sS'trains'
p488
I745
sS'mouth'
p489
I495
sS'sheets'
p490
I496
sS'pair'
p491
I497
sS'refrigerator'
p492
I498
sS'cellphone'
p493
I500
sS'lawn'
p494
I501
sS'boys'
p495
I908
sS'windows'
p496
I503
sS'clear'
p497
I504
sS'grass'
p498
I929
sS'metal'
p499
I505
sS'dog'
p500
I506
sS'tooth'
p501
I507
sS'pipe'
p502
I508
sS'sunset'
p503
I509
sS'clean'
p504
I510
sS'professional'
p505
I512
sS'left'
p506
I748
sS'painting'
p507
I514
sS'lying'
p508
I515
sS'shop'
p509
I2
sS'walking'
p510
I517
sS'shot'
p511
I518
sS'kite'
p512
I519
sS'gold'
p513
I520
sS'stove'
p514
I521
sS'hillside'
p515
I522
sS'area'
p516
I886
sS'colors'
p517
I46
sS'bikes'
p518
I524
sS'parked'
p519
I525
sS'bedroom'
p520
I526
sS'perched'
p521
I527
sS'corner'
p522
I528
sS'chicken'
p523
I529
sS'toilet'
p524
I637
sS'ground'
p525
I130
sS'tarmac'
p526
I531
sS'giant'
p527
I532
sS'busy'
p528
I533
sS'scooter'
p529
I535
sS'mug'
p530
I603
sS'ball'
p531
I721
sS'short'
p532
I439
sS'terminal'
p533
I538
sS'bush'
p534
I539
sS'going'
p535
I312
sS'black'
p536
I541
sS'pretty'
p537
I542
sS'riding'
p538
I544
sS'watching'
p539
I545
sS'rice'
p540
I546
sS'laptop'
p541
I754
sS'smaller'
p542
I547
sS'wearing'
p543
I548
sS'plate'
p544
I549
sS'hit'
p545
I199
sS'colorful'
p546
I551
sS'wide'
p547
I444
sS'blender'
p548
I530
sS'sunny'
p549
I37
sS'television'
p550
I445
sS'bear'
p551
I232
sS'remotes'
p552
I556
sS'batter'
p553
I558
sS'tiled'
p554
I559
sS'wedding'
p555
I560
sS'striped'
p556
I562
sS'chips'
p557
I285
sS'gray'
p558
I564
sS'bat'
p559
I565
sS'catcher'
p560
I566
sS'bar'
p561
I567
sS'motorcycles'
p562
I568
sS'trucks'
p563
I569
sS'held'
p564
I570
sS'leather'
p565
I571
sS'boarder'
p566
I572
sS'modern'
p567
I663
sS'public'
p568
I573
sS'bag'
p569
I574
sS'stuff'
p570
I575
sS'river'
p571
I576
sS'steam'
p572
I578
sS'fridge'
p573
I787
sS'approaching'
p574
I392
sS'set'
p575
I580
sS'picnic'
p576
I581
sS'throwing'
p577
I582
sS'attached'
p578
I921
sS'carrying'
p579
I996
sS'keyboard'
p580
I584
sS'seat'
p581
I585
sS'cutting'
p582
I586
sS'seated'
p583
I587
sS'sea'
p584
I588
sS'skateboarding'
p585
I342
sS'racket'
p586
I590
sS'close'
p587
I591
sS'stack'
p588
I733
sS'noodles'
p589
I592
sS'arm'
p590
I593
sS'barn'
p591
I594
sS'wire'
p592
I596
sS'lots'
p593
I597
sS'pictures'
p594
I598
sS'away'
p595
I599
sS'sail'
p596
I600
sS'wetsuit'
p597
I602
sS'case'
p598
I677
sS'outside'
p599
I537
sS'various'
p600
I604
sS'closed'
p601
I605
sS'drawn'
p602
I606
sS'hold'
p603
I14
sS'reading'
p604
I607
sS'surfboards'
p605
I608
sS'tent'
p606
I33
sS'toilets'
p607
I762
sS'screen'
p608
I611
sS'court'
p609
I205
sS'outfit'
p610
I613
sS'toothbrush'
p611
I614
sS'kicking'
p612
I615
sS'loading'
p613
I976
sS'police'
p614
I617
sS'tub'
p615
I998
sS'surfer'
p616
I619
sS'lap'
p617
I620
sS'staring'
p618
I621
sS'mans'
p619
I623
sS'cow'
p620
I624
sS'restaurant'
p621
I625
sS'country'
p622
I626
sS'taking'
p623
I627
sS'cup'
p624
I766
sS'ramp'
p625
I628
sS'event'
p626
I957
sS'restroom'
p627
I629
sS'players'
p628
I630
sS'tour'
p629
I631
sS'games'
p630
I632
sS'passing'
p631
I633
sS'nearby'
p632
I634
sS'cakes'
p633
I636
sS'bridge'
p634
I561
sS'color'
p635
I638
sS'pot'
p636
I639
sS'walk'
p637
I641
sS'pole'
p638
I642
sS'towels'
p639
I643
sS'church'
p640
I644
sS'table'
p641
I645
sS'bench'
p642
I646
sS'grazing'
p643
I647
sS'boat'
p644
I648
sS'bathroom'
p645
I649
sS'teddy'
p646
I650
sS'tiny'
p647
I651
sS'hitting'
p648
I652
sS'beer'
p649
I653
sS'peppers'
p650
I654
sS'curtain'
p651
I655
sS'brick'
p652
I656
sS'kitchen'
p653
I657
sS'hat'
p654
I778
sS'containers'
p655
I658
sS'kites'
p656
I775
sS'engine'
p657
I660
sS'dry'
p658
I661
sS'alongside'
p659
I461
sS'shopping'
p660
I664
sS'commuter'
p661
I665
sS'passengers'
p662
I277
sS'painted'
p663
I667
sS'doorway'
p664
I714
sS'gas'
p665
I668
sS'sort'
p666
I669
sS'photos'
p667
I670
sS'controller'
p668
I671
sS'fruits'
p669
I612
sS'watches'
p670
I939
sS'child'
p671
I674
sS'catch'
p672
I675
sS'skiers'
p673
I676
sS'land'
p674
I987
sS'plants'
p675
I404
sS'wood'
p676
I540
sS'multi'
p677
I678
sS'stacked'
p678
I679
sS'look'
p679
I680
sS'juice'
p680
I681
sS'plain'
p681
I155
sS'runway'
p682
I683
sS'air'
p683
I684
sS'trick'
p684
I685
sS'near'
p685
I686
sS'match'
p686
I687
sS'leaning'
p687
I688
sS'wild'
p688
I98
sS'mound'
p689
I690
sS'bathtub'
p690
I464
sS'ripe'
p691
I692
sS'pickup'
p692
I693
sS'pool'
p693
I984
sS'purse'
p694
I159
sS'surface'
p695
I696
sS'sleeping'
p696
I697
sS'middle'
p697
I177
sS'reads'
p698
I699
sS'itself'
p699
I700
sS'swinging'
p700
I701
sS'ready'
p701
I702
sS'sits'
p702
I703
sS'mouse'
p703
I704
sS'ship'
p704
I947
sS'bags'
p705
I224
sS'containing'
p706
I229
sS'bottles'
p707
I709
sS'shirt'
p708
I710
sS'things'
p709
I252
sS'make'
p710
I712
sS'bowl'
p711
I713
sS'cross'
p712
I269
sS'vegetable'
p713
I715
sS'party'
p714
I716
sS'gets'
p715
I717
sS'couple'
p716
I718
sS'tomatoes'
p717
I321
sS'disc'
p718
I438
sS'used'
p719
I381
sS'drink'
p720
I722
sS'rail'
p721
I723
sS'drives'
p722
I724
sS'cement'
p723
I372
sS'hand'
p724
I726
sS'persons'
p725
I727
sS'running'
p726
I728
sS'fruit'
p727
I729
sS'moving'
p728
I730
sS'statue'
p729
I731
sS'assortment'
p730
I732
sS'broccoli'
p731
I618
sS'kid'
p732
I734
sS'reflection'
p733
I283
sS'older'
p734
I736
sS'variety'
p735
I954
sS'docked'
p736
I738
sS'game'
p737
I790
sS'ocean'
p738
I740
sS'concrete'
p739
I475
sS'edge'
p740
I480
sS'flags'
p741
I743
sS'bottle'
p742
I744
sS'mother'
p743
I493
sS'snowboards'
p744
I746
sS'model'
p745
I747
sS'hotdog'
p746
I513
sS'outdoor'
p747
I749
sS'bananas'
p748
I750
sS'just'
p749
I751
sS'photo'
p750
I753
sS'produce'
p751
I616
sS'hands'
p752
I755
sS'flies'
p753
I756
sS'birthday'
p754
I385
sS'mid'
p755
I758
sS'clocks'
p756
I759
sS'rest'
p757
I757
sS'zoo'
p758
I760
sS'kneeling'
p759
I601
sS'tables'
p760
I610
sS'polar'
p761
I763
sS'cut'
p762
I764
sS'snowboarder'
p763
I765
sS'dining'
p764
I534
sS'residential'
p765
I767
sS'slices'
p766
I768
sS'sky'
p767
I769
sS'lake'
p768
I770
sS'day'
p769
I354
sS'hay'
p770
I250
sS'book'
p771
I959
sS'pile'
p772
I774
sS'board'
p773
I659
sS'wet'
p774
I776
sS'vanity'
p775
I777
sS'ski'
p776
I682
sS'skies'
p777
I292
sS'skier'
p778
I780
sS'ledge'
p779
I782
sS'big'
p780
I783
sS'skateboards'
p781
I595
sS'papers'
p782
I962
sS'looks'
p783
I786
sS'pants'
p784
I609
sS'dark'
p785
I788
sS'boxes'
p786
I739
sS'traffic'
p787
I791
sS'background'
p788
I792
sS'desk'
p789
I793
sS'using'
p790
I794
sS'railroad'
p791
I761
sS'intersection'
p792
I72
sS'pier'
p793
I330
sS'rear'
p794
I799
sS'furniture'
p795
I557
sS'showing'
p796
I784
sS'like'
p797
I802
sS'shaped'
p798
I803
sS'chairs'
p799
I804
sS'sofa'
p800
I805
sS'signal'
p801
I806
sS'performing'
p802
I807
sS'glove'
p803
I808
sS'facing'
p804
I789
sS'garage'
p805
I810
sS'pavement'
p806
I811
sS'suitcase'
p807
I926
sS'steps'
p808
I812
sS'nose'
p809
I813
sS'night'
p810
I814
sS'served'
p811
I815
sS'tower'
p812
I816
sS'nice'
p813
I966
sS'making'
p814
I819
sS'antique'
p815
I820
sS'right'
p816
I821
sS'old'
p817
I822
sS'motor'
p818
I41
sS'crowd'
p819
I824
sS'doll'
p820
I299
sS'hair'
p821
I826
sS'palm'
p822
I827
sS'loaded'
p823
I829
sS'pasture'
p824
I830
sS'preparing'
p825
I831
sS'electric'
p826
I832
sS'controllers'
p827
I809
sS'candles'
p828
I798
sS'purple'
p829
I837
sS'ear'
p830
I914
sS'ice'
p831
I7
sS'pen'
p832
I839
sS'does'
p833
I840
sS'trays'
p834
I841
sS'railing'
p835
I842
sS'skateboarder'
p836
I843
sS'christmas'
p837
I844
sS'knife'
p838
I164
sS'officer'
p839
I846
sS'says'
p840
I405
sS'object'
p841
I847
sS'run'
p842
I69
sS'business'
p843
I849
sS'reaching'
p844
I850
sS'jumps'
p845
I852
sS'decorative'
p846
I473
sS'rug'
p847
I854
sS'broken'
p848
I391
sS'soup'
p849
I856
sS'petting'
p850
I857
sS'putting'
p851
I858
sS'pasta'
p852
I859
sS'post'
p853
I860
sS'includes'
p854
I975
sS'throw'
p855
I862
sS'stone'
p856
I863
sS'boards'
p857
I864
sS'touching'
p858
I742
sS'island'
p859
I866
sS'surfers'
p860
I867
sS'dinner'
p861
I868
sS'toppings'
p862
I828
sS'stand'
p863
I870
sS'desktop'
p864
I771
sS'road'
p865
I871
sS'pastries'
p866
I499
sS'ladies'
p867
I873
sS'eaten'
p868
I874
sS'image'
p869
I875
sS'plates'
p870
I834
sS'stop'
p871
I553
sS'lies'
p872
I315
sS'benches'
p873
I879
sS'brush'
p874
I880
sS'female'
p875
I881
sS'ketchup'
p876
I662
sS'parade'
p877
I823
sS'sunglasses'
p878
I550
sS'van'
p879
I884
sS'log'
p880
I885
sS'waits'
p881
I855
sS'stainless'
p882
I887
sS'vegetables'
p883
I888
sS'tennis'
p884
I395
sS'lone'
p885
I890
sS'long'
p886
I891
sS'desert'
p887
I983
sS'cats'
p888
I893
sS'low'
p889
I430
sS'way'
p890
I640
sS'suit'
p891
I896
sS'blurry'
p892
I845
sS'fork'
p893
I898
sS'mountains'
p894
I899
sS'head'
p895
I900
sS'himself'
p896
I901
sS'snowy'
p897
I902
sS'bus'
p898
I903
sS'atop'
p899
I904
sS'pitcher'
p900
I905
sS'landing'
p901
I906
sS'cabinet'
p902
I907
sS'cloth'
p903
I502
sS'construction'
p904
I909
sS'bun'
p905
I910
sS'beans'
p906
I869
sS'walkway'
p907
I911
sS'remote'
p908
I988
sS'line'
p909
I913
sS'trying'
p910
I818
sS'eat'
p911
I915
sS'candle'
p912
I916
sS'partially'
p913
I917
sS'boarding'
p914
I918
sS'lady'
p915
I797
sS'arranged'
p916
I919
sS'inside'
p917
I920
sS'fries'
p918
I583
sS'placed'
p919
I922
sS'carriage'
p920
I923
sS'catching'
p921
I924
sS'lays'
p922
I511
sS'planes'
p923
I135
sS'cake'
p924
I927
sS'meters'
p925
I928
sS'piece'
p926
I265
sS'display'
p927
I930
sS'<unk>'
p928
I1
sS'skating'
p929
I931
sS'passenger'
p930
I622
sS'vehicles'
p931
I993
sS'adults'
p932
I933
sS'resting'
p933
I934
sS'cover'
p934
I935
sS'umpire'
p935
I936
sS'mirror'
p936
I937
sS'pie'
p937
I938
sS'deep'
p938
I673
sS'sale'
p939
I940
sS'utensils'
p940
I635
sS'single'
p941
I942
sS'curb'
p942
I943
sS'fashioned'
p943
I944
sS'walks'
p944
I694
sS'flight'
p945
I946
sS'floating'
p946
I705
sS'face'
p947
I948
sS'flock'
p948
I949
sS'cream'
p949
I950
sS'jacket'
p950
I994
sS'rainy'
p951
I952
sS'cabinets'
p952
I953
sS'floor'
p953
I737
sS'dressed'
p954
I955
sS'assorted'
p955
I666
sS'green'
p956
I483
sS'topped'
p957
I956
sS'monitors'
p958
I851
sS'field'
p959
I958
sS'setting'
p960
I773
sS'branch'
p961
I752
sS'someones'
p962
I785
sS'tie'
p963
I963
sS'trash'
p964
I964
sS'roll'
p965
I965
sS'dresser'
p966
I817
sS'brushing'
p967
I967
sS'smiles'
p968
I313
sS'frisbee'
p969
I969
sS'kinds'
p970
I970
sS'mustard'
p971
I833
sS'waves'
p972
I398
sS'airplanes'
p973
I972
sS'teeth'
p974
I997
sS'distance'
p975
I974
sS'prepared'
p976
I861
sS'slice'
p977
I835
sS'lunch'
p978
I977
sS'nintendo'
p979
I978
sS'prepares'
p980
I979
sS'decorated'
p981
I980
sS'pizzas'
p982
I981
sS'friends'
p983
I982
sS'sides'
p984
I892
sS'structure'
p985
I894
sS'building'
p986
I985
sS'laptops'
p987
I986
sS'motorcycle'
p988
I437
sS'fighter'
p989
I912
sS'overlooking'
p990
I989
sS'trail'
p991
I447
sS'home'
p992
I945
sS'pedestrians'
p993
I991
sS'tricks'
p994
I992
sS'lot'
p995
I895
sS'beds'
p996
I951
sS'cooked'
p997
I995
sS'lift'
p998
I672
sS'time'
p999
I973
sS'rural'
p1000
I836
sS'baked'
p1001
I1000
sS'having'
p1002
I1001
s.